target datalayout = "e-m:e-p270:32:32-p271:32:32-p272:64:64-i64:64-i128:128-f80:128-n8:16:32:64-S128"
target triple = "x86_64-pc-linux-gnu"

; Function Attrs: inlinehint mustprogress nounwind uwtable
define internal void @_ZL8rvec_incPfPKf(ptr noundef %0, ptr noundef %1) #6 {
  %3 = alloca ptr, align 8
  %4 = alloca ptr, align 8
  %5 = alloca float, align 4
  %6 = alloca float, align 4
  %7 = alloca float, align 4
  store ptr %0, ptr %3, align 8, !tbaa !13
  store ptr %1, ptr %4, align 8, !tbaa !13
  call void @llvm.lifetime.start.p0(i64 4, ptr %5) #14
  call void @llvm.lifetime.start.p0(i64 4, ptr %6) #14
  call void @llvm.lifetime.start.p0(i64 4, ptr %7) #14
  %8 = load ptr, ptr %3, align 8, !tbaa !13
  %9 = getelementptr inbounds float, ptr %8, i64 0
  %10 = load float, ptr %9, align 4, !tbaa !42
  %11 = load ptr, ptr %4, align 8, !tbaa !13
  %12 = getelementptr inbounds float, ptr %11, i64 0
  %13 = load float, ptr %12, align 4, !tbaa !42
  %14 = fadd float %10, %13
  store float %14, ptr %5, align 4, !tbaa !42
  %15 = load ptr, ptr %3, align 8, !tbaa !13
  %16 = getelementptr inbounds float, ptr %15, i64 1
  %17 = load float, ptr %16, align 4, !tbaa !42
  %18 = load ptr, ptr %4, align 8, !tbaa !13
  %19 = getelementptr inbounds float, ptr %18, i64 1
  %20 = load float, ptr %19, align 4, !tbaa !42
  %21 = fadd float %17, %20
  store float %21, ptr %6, align 4, !tbaa !42
  %22 = load ptr, ptr %3, align 8, !tbaa !13
  %23 = getelementptr inbounds float, ptr %22, i64 2
  %24 = load float, ptr %23, align 4, !tbaa !42
  %25 = load ptr, ptr %4, align 8, !tbaa !13
  %26 = getelementptr inbounds float, ptr %25, i64 2
  %27 = load float, ptr %26, align 4, !tbaa !42
  %28 = fadd float %24, %27
  store float %28, ptr %7, align 4, !tbaa !42
  %29 = load float, ptr %5, align 4, !tbaa !42
  %30 = load ptr, ptr %3, align 8, !tbaa !13
  %31 = getelementptr inbounds float, ptr %30, i64 0
  store float %29, ptr %31, align 4, !tbaa !42
  %32 = load float, ptr %6, align 4, !tbaa !42
  %33 = load ptr, ptr %3, align 8, !tbaa !13
  %34 = getelementptr inbounds float, ptr %33, i64 1
  store float %32, ptr %34, align 4, !tbaa !42
  %35 = load float, ptr %7, align 4, !tbaa !42
  %36 = load ptr, ptr %3, align 8, !tbaa !13
  %37 = getelementptr inbounds float, ptr %36, i64 2
  store float %35, ptr %37, align 4, !tbaa !42
  call void @llvm.lifetime.end.p0(i64 4, ptr %7) #14
  call void @llvm.lifetime.end.p0(i64 4, ptr %6) #14
  call void @llvm.lifetime.end.p0(i64 4, ptr %5) #14
  ret void
}

; Function Attrs: inlinehint mustprogress nounwind uwtable
define internal void @_ZL9copy_rvecPKfPf(ptr noundef %0, ptr noundef %1) #6 {
  %3 = alloca ptr, align 8
  %4 = alloca ptr, align 8
  store ptr %0, ptr %3, align 8, !tbaa !13
  store ptr %1, ptr %4, align 8, !tbaa !13
  %5 = load ptr, ptr %3, align 8, !tbaa !13
  %6 = getelementptr inbounds float, ptr %5, i64 0
  %7 = load float, ptr %6, align 4, !tbaa !42
  %8 = load ptr, ptr %4, align 8, !tbaa !13
  %9 = getelementptr inbounds float, ptr %8, i64 0
  store float %7, ptr %9, align 4, !tbaa !42
  %10 = load ptr, ptr %3, align 8, !tbaa !13
  %11 = getelementptr inbounds float, ptr %10, i64 1
  %12 = load float, ptr %11, align 4, !tbaa !42
  %13 = load ptr, ptr %4, align 8, !tbaa !13
  %14 = getelementptr inbounds float, ptr %13, i64 1
  store float %12, ptr %14, align 4, !tbaa !42
  %15 = load ptr, ptr %3, align 8, !tbaa !13
  %16 = getelementptr inbounds float, ptr %15, i64 2
  %17 = load float, ptr %16, align 4, !tbaa !42
  %18 = load ptr, ptr %4, align 8, !tbaa !13
  %19 = getelementptr inbounds float, ptr %18, i64 2
  store float %17, ptr %19, align 4, !tbaa !42
  ret void
}

; Function Attrs: mustprogress uwtable
define void @_Z8center_xiPA3_fS0_iiPKi(i32 noundef %0, ptr noundef %1, ptr noundef %2, i32 noundef %3, i32 noundef %4, ptr noundef %5) #0 {
  %7 = alloca i32, align 4
  %8 = alloca ptr, align 8
  %9 = alloca ptr, align 8
  %10 = alloca i32, align 4
  %11 = alloca i32, align 4
  %12 = alloca ptr, align 8
  %13 = alloca i32, align 4
  %14 = alloca i32, align 4
  %15 = alloca i32, align 4
  %16 = alloca [3 x float], align 4
  %17 = alloca [3 x float], align 4
  %18 = alloca [3 x float], align 4
  %19 = alloca [3 x float], align 4
  store i32 %0, ptr %7, align 4, !tbaa !4
  store ptr %1, ptr %8, align 8, !tbaa !13
  store ptr %2, ptr %9, align 8, !tbaa !13
  store i32 %3, ptr %10, align 4, !tbaa !4
  store i32 %4, ptr %11, align 4, !tbaa !4
  store ptr %5, ptr %12, align 8, !tbaa !15
  call void @llvm.lifetime.start.p0(i64 4, ptr %13) #14
  call void @llvm.lifetime.start.p0(i64 4, ptr %14) #14
  call void @llvm.lifetime.start.p0(i64 4, ptr %15) #14
  call void @llvm.lifetime.start.p0(i64 12, ptr %16) #14
  call void @llvm.lifetime.start.p0(i64 12, ptr %17) #14
  call void @llvm.lifetime.start.p0(i64 12, ptr %18) #14
  call void @llvm.lifetime.start.p0(i64 12, ptr %19) #14
  %20 = load i32, ptr %11, align 4, !tbaa !4
  %21 = icmp sgt i32 %20, 0
  br i1 %21, label %22, label %161

22:                                               ; preds = %6
  %23 = load ptr, ptr %8, align 8, !tbaa !13
  %24 = load ptr, ptr %12, align 8, !tbaa !15
  %25 = getelementptr inbounds i32, ptr %24, i64 0
  %26 = load i32, ptr %25, align 4, !tbaa !4
  %27 = sext i32 %26 to i64
  %28 = getelementptr inbounds [3 x float], ptr %23, i64 %27
  %29 = getelementptr inbounds [3 x float], ptr %28, i64 0, i64 0
  %30 = getelementptr inbounds [3 x float], ptr %16, i64 0, i64 0
  call void @_ZL9copy_rvecPKfPf(ptr noundef %29, ptr noundef %30)
  %31 = load ptr, ptr %8, align 8, !tbaa !13
  %32 = load ptr, ptr %12, align 8, !tbaa !15
  %33 = getelementptr inbounds i32, ptr %32, i64 0
  %34 = load i32, ptr %33, align 4, !tbaa !4
  %35 = sext i32 %34 to i64
  %36 = getelementptr inbounds [3 x float], ptr %31, i64 %35
  %37 = getelementptr inbounds [3 x float], ptr %36, i64 0, i64 0
  %38 = getelementptr inbounds [3 x float], ptr %17, i64 0, i64 0
  call void @_ZL9copy_rvecPKfPf(ptr noundef %37, ptr noundef %38)
  store i32 0, ptr %13, align 4, !tbaa !4
  br label %39

39:                                               ; preds = %110, %22
  %40 = load i32, ptr %13, align 4, !tbaa !4
  %41 = load i32, ptr %11, align 4, !tbaa !4
  %42 = icmp slt i32 %40, %41
  br i1 %42, label %43, label %113

43:                                               ; preds = %39
  %44 = load ptr, ptr %12, align 8, !tbaa !15
  %45 = load i32, ptr %13, align 4, !tbaa !4
  %46 = sext i32 %45 to i64
  %47 = getelementptr inbounds i32, ptr %44, i64 %46
  %48 = load i32, ptr %47, align 4, !tbaa !4
  store i32 %48, ptr %15, align 4, !tbaa !4
  store i32 0, ptr %14, align 4, !tbaa !4
  br label %49

49:                                               ; preds = %106, %43
  %50 = load i32, ptr %14, align 4, !tbaa !4
  %51 = icmp slt i32 %50, 3
  br i1 %51, label %52, label %109

52:                                               ; preds = %49
  %53 = load ptr, ptr %8, align 8, !tbaa !13
  %54 = load i32, ptr %15, align 4, !tbaa !4
  %55 = sext i32 %54 to i64
  %56 = getelementptr inbounds [3 x float], ptr %53, i64 %55
  %57 = load i32, ptr %14, align 4, !tbaa !4
  %58 = sext i32 %57 to i64
  %59 = getelementptr inbounds [3 x float], ptr %56, i64 0, i64 %58
  %60 = load float, ptr %59, align 4, !tbaa !42
  %61 = load i32, ptr %14, align 4, !tbaa !4
  %62 = sext i32 %61 to i64
  %63 = getelementptr inbounds [3 x float], ptr %16, i64 0, i64 %62
  %64 = load float, ptr %63, align 4, !tbaa !42
  %65 = fcmp olt float %60, %64
  br i1 %65, label %66, label %78

66:                                               ; preds = %52
  %67 = load ptr, ptr %8, align 8, !tbaa !13
  %68 = load i32, ptr %15, align 4, !tbaa !4
  %69 = sext i32 %68 to i64
  %70 = getelementptr inbounds [3 x float], ptr %67, i64 %69
  %71 = load i32, ptr %14, align 4, !tbaa !4
  %72 = sext i32 %71 to i64
  %73 = getelementptr inbounds [3 x float], ptr %70, i64 0, i64 %72
  %74 = load float, ptr %73, align 4, !tbaa !42
  %75 = load i32, ptr %14, align 4, !tbaa !4
  %76 = sext i32 %75 to i64
  %77 = getelementptr inbounds [3 x float], ptr %16, i64 0, i64 %76
  store float %74, ptr %77, align 4, !tbaa !42
  br label %105

78:                                               ; preds = %52
  %79 = load ptr, ptr %8, align 8, !tbaa !13
  %80 = load i32, ptr %15, align 4, !tbaa !4
  %81 = sext i32 %80 to i64
  %82 = getelementptr inbounds [3 x float], ptr %79, i64 %81
  %83 = load i32, ptr %14, align 4, !tbaa !4
  %84 = sext i32 %83 to i64
  %85 = getelementptr inbounds [3 x float], ptr %82, i64 0, i64 %84
  %86 = load float, ptr %85, align 4, !tbaa !42
  %87 = load i32, ptr %14, align 4, !tbaa !4
  %88 = sext i32 %87 to i64
  %89 = getelementptr inbounds [3 x float], ptr %17, i64 0, i64 %88
  %90 = load float, ptr %89, align 4, !tbaa !42
  %91 = fcmp ogt float %86, %90
  br i1 %91, label %92, label %104

92:                                               ; preds = %78
  %93 = load ptr, ptr %8, align 8, !tbaa !13
  %94 = load i32, ptr %15, align 4, !tbaa !4
  %95 = sext i32 %94 to i64
  %96 = getelementptr inbounds [3 x float], ptr %93, i64 %95
  %97 = load i32, ptr %14, align 4, !tbaa !4
  %98 = sext i32 %97 to i64
  %99 = getelementptr inbounds [3 x float], ptr %96, i64 0, i64 %98
  %100 = load float, ptr %99, align 4, !tbaa !42
  %101 = load i32, ptr %14, align 4, !tbaa !4
  %102 = sext i32 %101 to i64
  %103 = getelementptr inbounds [3 x float], ptr %17, i64 0, i64 %102
  store float %100, ptr %103, align 4, !tbaa !42
  br label %104

104:                                              ; preds = %92, %78
  br label %105

105:                                              ; preds = %104, %66
  br label %106

106:                                              ; preds = %105
  %107 = load i32, ptr %14, align 4, !tbaa !4
  %108 = add nsw i32 %107, 1
  store i32 %108, ptr %14, align 4, !tbaa !4
  br label %49, !llvm.loop !144

109:                                              ; preds = %49
  br label %110

110:                                              ; preds = %109
  %111 = load i32, ptr %13, align 4, !tbaa !4
  %112 = add nsw i32 %111, 1
  store i32 %112, ptr %13, align 4, !tbaa !4
  br label %39, !llvm.loop !145

113:                                              ; preds = %39
  %114 = load i32, ptr %7, align 4, !tbaa !4
  %115 = load ptr, ptr %9, align 8, !tbaa !13
  %116 = getelementptr inbounds [3 x float], ptr %18, i64 0, i64 0
  call void @_Z15calc_box_centeriPA3_KfPf(i32 noundef %114, ptr noundef %115, ptr noundef %116)
  store i32 0, ptr %14, align 4, !tbaa !4
  br label %117

117:                                              ; preds = %142, %113
  %118 = load i32, ptr %14, align 4, !tbaa !4
  %119 = icmp slt i32 %118, 3
  br i1 %119, label %120, label %145

120:                                              ; preds = %117
  %121 = load i32, ptr %14, align 4, !tbaa !4
  %122 = sext i32 %121 to i64
  %123 = getelementptr inbounds [3 x float], ptr %18, i64 0, i64 %122
  %124 = load float, ptr %123, align 4, !tbaa !42
  %125 = fpext float %124 to double
  %126 = load i32, ptr %14, align 4, !tbaa !4
  %127 = sext i32 %126 to i64
  %128 = getelementptr inbounds [3 x float], ptr %16, i64 0, i64 %127
  %129 = load float, ptr %128, align 4, !tbaa !42
  %130 = load i32, ptr %14, align 4, !tbaa !4
  %131 = sext i32 %130 to i64
  %132 = getelementptr inbounds [3 x float], ptr %17, i64 0, i64 %131
  %133 = load float, ptr %132, align 4, !tbaa !42
  %134 = fadd float %129, %133
  %135 = fpext float %134 to double
  %136 = fneg double %135
  %137 = call double @llvm.fmuladd.f64(double %136, double 5.000000e-01, double %125)
  %138 = fptrunc double %137 to float
  %139 = load i32, ptr %14, align 4, !tbaa !4
  %140 = sext i32 %139 to i64
  %141 = getelementptr inbounds [3 x float], ptr %19, i64 0, i64 %140
  store float %138, ptr %141, align 4, !tbaa !42
  br label %142

142:                                              ; preds = %120
  %143 = load i32, ptr %14, align 4, !tbaa !4
  %144 = add nsw i32 %143, 1
  store i32 %144, ptr %14, align 4, !tbaa !4
  br label %117, !llvm.loop !146

145:                                              ; preds = %117
  store i32 0, ptr %13, align 4, !tbaa !4
  br label %146

146:                                              ; preds = %157, %145
  %147 = load i32, ptr %13, align 4, !tbaa !4
  %148 = load i32, ptr %10, align 4, !tbaa !4
  %149 = icmp slt i32 %147, %148
  br i1 %149, label %150, label %160

150:                                              ; preds = %146
  %151 = load ptr, ptr %8, align 8, !tbaa !13
  %152 = load i32, ptr %13, align 4, !tbaa !4
  %153 = sext i32 %152 to i64
  %154 = getelementptr inbounds [3 x float], ptr %151, i64 %153
  %155 = getelementptr inbounds [3 x float], ptr %154, i64 0, i64 0
  %156 = getelementptr inbounds [3 x float], ptr %19, i64 0, i64 0
  call void @_ZL8rvec_incPfPKf(ptr noundef %155, ptr noundef %156)
  br label %157

157:                                              ; preds = %150
  %158 = load i32, ptr %13, align 4, !tbaa !4
  %159 = add nsw i32 %158, 1
  store i32 %159, ptr %13, align 4, !tbaa !4
  br label %146, !llvm.loop !147

160:                                              ; preds = %146
  br label %161

161:                                              ; preds = %160, %6
  call void @llvm.lifetime.end.p0(i64 12, ptr %19) #14
  call void @llvm.lifetime.end.p0(i64 12, ptr %18) #14
  call void @llvm.lifetime.end.p0(i64 12, ptr %17) #14
  call void @llvm.lifetime.end.p0(i64 12, ptr %16) #14
  call void @llvm.lifetime.end.p0(i64 4, ptr %15) #14
  call void @llvm.lifetime.end.p0(i64 4, ptr %14) #14
  call void @llvm.lifetime.end.p0(i64 4, ptr %13) #14
  ret void
}