; Function Attrs: mustprogress uwtable
define void @_Z8center_xiPA3_fS0_iiPKi(i32 noundef %0, ptr noundef captures(none) %1, ptr noundef %2, i32 noundef %3, i32 noundef %4, ptr noundef readonly captures(none) %5) local_unnamed_addr #0 {
  %7 = alloca [3 x float], align 4
  %8 = alloca [3 x float], align 4
  %9 = alloca [3 x float], align 4
  %10 = alloca [3 x float], align 4
  call void @llvm.lifetime.start.p0(i64 12, ptr nonnull %7) #15
  call void @llvm.lifetime.start.p0(i64 12, ptr nonnull %8) #15
  call void @llvm.lifetime.start.p0(i64 12, ptr nonnull %9) #15
  call void @llvm.lifetime.start.p0(i64 12, ptr nonnull %10) #15
  %11 = icmp sgt i32 %4, 0
  br i1 %11, label %12, label %.loopexit

12:                                               ; preds = %6
  %13 = load i32, ptr %5, align 4, !tbaa !28
  %14 = sext i32 %13 to i64
  %15 = getelementptr inbounds [3 x float], ptr %1, i64 %14
  %16 = load float, ptr %15, align 4, !tbaa !33
  store float %16, ptr %7, align 4, !tbaa !33
  %17 = getelementptr inbounds nuw i8, ptr %15, i64 4
  %18 = load float, ptr %17, align 4, !tbaa !33
  %19 = getelementptr inbounds nuw i8, ptr %7, i64 4
  store float %18, ptr %19, align 4, !tbaa !33
  %20 = getelementptr inbounds nuw i8, ptr %15, i64 8
  %21 = load float, ptr %20, align 4, !tbaa !33
  %22 = getelementptr inbounds nuw i8, ptr %7, i64 8
  store float %21, ptr %22, align 4, !tbaa !33
  store float %16, ptr %8, align 4, !tbaa !33
  %23 = getelementptr inbounds nuw i8, ptr %8, i64 4
  store float %18, ptr %23, align 4, !tbaa !33
  %24 = getelementptr inbounds nuw i8, ptr %8, i64 8
  store float %21, ptr %24, align 4, !tbaa !33
  %wide.trip.count = zext nneg i32 %4 to i64
  br label %25

25:                                               ; preds = %12, %42
  %indvars.iv50 = phi i64 [ 0, %12 ], [ %indvars.iv.next51, %42 ]
  %26 = getelementptr inbounds nuw i32, ptr %5, i64 %indvars.iv50
  %27 = load i32, ptr %26, align 4, !tbaa !28
  %28 = sext i32 %27 to i64
  br label %29

29:                                               ; preds = %25, %41
  %indvars.iv = phi i64 [ 0, %25 ], [ %indvars.iv.next, %41 ]
  %30 = getelementptr inbounds [3 x float], ptr %1, i64 %28, i64 %indvars.iv
  %31 = load float, ptr %30, align 4, !tbaa !33
  %32 = getelementptr inbounds nuw [3 x float], ptr %7, i64 0, i64 %indvars.iv
  %33 = load float, ptr %32, align 4, !tbaa !33
  %34 = fcmp olt float %31, %33
  br i1 %34, label %35, label %36

35:                                               ; preds = %29
  store float %31, ptr %32, align 4, !tbaa !33
  br label %41

36:                                               ; preds = %29
  %37 = getelementptr inbounds nuw [3 x float], ptr %8, i64 0, i64 %indvars.iv
  %38 = load float, ptr %37, align 4, !tbaa !33
  %39 = fcmp ogt float %31, %38
  br i1 %39, label %40, label %41

40:                                               ; preds = %36
  store float %31, ptr %37, align 4, !tbaa !33
  br label %41

41:                                               ; preds = %35, %40, %36
  %indvars.iv.next = add nuw nsw i64 %indvars.iv, 1
  %exitcond.not = icmp eq i64 %indvars.iv.next, 3
  br i1 %exitcond.not, label %42, label %29, !llvm.loop !72

42:                                               ; preds = %41
  %indvars.iv.next51 = add nuw nsw i64 %indvars.iv50, 1
  %exitcond53.not = icmp eq i64 %indvars.iv.next51, %wide.trip.count
  br i1 %exitcond53.not, label %43, label %25, !llvm.loop !73

43:                                               ; preds = %42
  call void @_Z15calc_box_centeriPA3_KfPf(i32 noundef %0, ptr noundef %2, ptr noundef nonnull %9)
  br label %50

.preheader:                                       ; preds = %50
  %44 = icmp sgt i32 %3, 0
  br i1 %44, label %.lr.ph, label %.loopexit

.lr.ph:                                           ; preds = %.preheader
  %45 = load float, ptr %10, align 4, !tbaa !33
  %46 = getelementptr inbounds nuw i8, ptr %10, i64 4
  %47 = load float, ptr %46, align 4, !tbaa !33
  %48 = getelementptr inbounds nuw i8, ptr %10, i64 8
  %49 = load float, ptr %48, align 4, !tbaa !33
  %wide.trip.count61 = zext nneg i32 %3 to i64
  br label %64

50:                                               ; preds = %43, %50
  %indvars.iv54 = phi i64 [ 0, %43 ], [ %indvars.iv.next55, %50 ]
  %51 = getelementptr inbounds nuw [3 x float], ptr %9, i64 0, i64 %indvars.iv54
  %52 = load float, ptr %51, align 4, !tbaa !33
  %53 = fpext float %52 to double
  %54 = getelementptr inbounds nuw [3 x float], ptr %7, i64 0, i64 %indvars.iv54
  %55 = load float, ptr %54, align 4, !tbaa !33
  %56 = getelementptr inbounds nuw [3 x float], ptr %8, i64 0, i64 %indvars.iv54
  %57 = load float, ptr %56, align 4, !tbaa !33
  %58 = fadd float %55, %57
  %59 = fpext float %58 to double
  %60 = fneg double %59
  %61 = call double @llvm.fmuladd.f64(double %60, double 5.000000e-01, double %53)
  %62 = fptrunc double %61 to float
  %63 = getelementptr inbounds nuw [3 x float], ptr %10, i64 0, i64 %indvars.iv54
  store float %62, ptr %63, align 4, !tbaa !33
  %indvars.iv.next55 = add nuw nsw i64 %indvars.iv54, 1
  %exitcond57.not = icmp eq i64 %indvars.iv.next55, 3
  br i1 %exitcond57.not, label %.preheader, label %50, !llvm.loop !74

64:                                               ; preds = %.lr.ph, %64
  %indvars.iv58 = phi i64 [ 0, %.lr.ph ], [ %indvars.iv.next59, %64 ]
  %65 = getelementptr inbounds nuw [3 x float], ptr %1, i64 %indvars.iv58
  %66 = load float, ptr %65, align 4, !tbaa !33
  %67 = fadd float %66, %45
  %68 = getelementptr inbounds nuw i8, ptr %65, i64 4
  %69 = load float, ptr %68, align 4, !tbaa !33
  %70 = fadd float %69, %47
  %71 = getelementptr inbounds nuw i8, ptr %65, i64 8
  %72 = load float, ptr %71, align 4, !tbaa !33
  %73 = fadd float %72, %49
  store float %67, ptr %65, align 4, !tbaa !33
  store float %70, ptr %68, align 4, !tbaa !33
  store float %73, ptr %71, align 4, !tbaa !33
  %indvars.iv.next59 = add nuw nsw i64 %indvars.iv58, 1
  %exitcond62.not = icmp eq i64 %indvars.iv.next59, %wide.trip.count61
  br i1 %exitcond62.not, label %.loopexit, label %64, !llvm.loop !75

.loopexit:                                        ; preds = %64, %.preheader, %6
  call void @llvm.lifetime.end.p0(i64 12, ptr nonnull %10) #15
  call void @llvm.lifetime.end.p0(i64 12, ptr nonnull %9) #15
  call void @llvm.lifetime.end.p0(i64 12, ptr nonnull %8) #15
  call void @llvm.lifetime.end.p0(i64 12, ptr nonnull %7) #15
  ret void
}